; Function Attrs: nounwind uwtable
define internal ptr @aria192gcm_newctx(ptr noundef %0) #0 {
  %2 = tail call i32 @ossl_prov_is_running() #2
  %.not.i = icmp eq i32 %2, 0
  br i1 %.not.i, label %aria_gcm_newctx.exit, label %3

3:                                                ; preds = %1
  %4 = tail call noalias ptr @CRYPTO_zalloc(i64 noundef 984, ptr noundef nonnull @.str, i32 noundef 23) #2
  %.not7.i = icmp eq ptr %4, null
  br i1 %.not7.i, label %aria_gcm_newctx.exit, label %5

5:                                                ; preds = %3
  %6 = tail call ptr @ossl_prov_aria_hw_gcm(i64 noundef 192) #2
  tail call void @ossl_gcm_initctx(ptr noundef %0, ptr noundef nonnull %4, i64 noundef 192, ptr noundef %6) #2
  br label %aria_gcm_newctx.exit

aria_gcm_newctx.exit:                             ; preds = %1, %3, %5
  %.0.i = phi ptr [ null, %1 ], [ %4, %5 ], [ null, %3 ]
  ret ptr %.0.i
}